target datalayout = "e-m:e-p270:32:32-p271:32:32-p272:64:64-i64:64-i128:128-f80:128-n8:16:32:64-S128"
target triple = "x86_64-pc-linux-gnu"

%struct.Node = type { i32 }
%struct.Expr = type { i32 }
%struct.CollateClause = type { i32, ptr, ptr, i32 }
%struct.CollateExpr = type { %struct.Expr, ptr, i32, i32 }

@.str.41 = private unnamed_addr constant [13 x i8] c"parse_expr.c\00", align 1
@.str.62 = private unnamed_addr constant [40 x i8] c"collations are not supported by type %s\00", align 1
@__func__.transformCollateClause = private unnamed_addr constant [23 x i8] c"transformCollateClause\00", align 1

; Function Attrs: inlinehint nounwind uwtable
define internal ptr @newNode(i64 noundef %0, i32 noundef %1) #4 {
  %3 = alloca i64, align 8
  %4 = alloca i32, align 4
  %5 = alloca ptr, align 8
  store i64 %0, ptr %3, align 8
  store i32 %1, ptr %4, align 4
  call void @llvm.lifetime.start.p0(i64 8, ptr %5) #8
  %6 = load i64, ptr %3, align 8
  %7 = call ptr @palloc0(i64 noundef %6)
  store ptr %7, ptr %5, align 8
  %8 = load i32, ptr %4, align 4
  %9 = load ptr, ptr %5, align 8
  %10 = getelementptr inbounds nuw %struct.Node, ptr %9, i32 0, i32 0
  store i32 %8, ptr %10, align 4
  %11 = load ptr, ptr %5, align 8
  call void @llvm.lifetime.end.p0(i64 8, ptr %5) #8
  ret ptr %11
}

; Function Attrs: nounwind uwtable
define internal ptr @transformCollateClause(ptr noundef %0, ptr noundef %1) #0 {
  %3 = alloca ptr, align 8
  %4 = alloca ptr, align 8
  %5 = alloca ptr, align 8
  %6 = alloca i32, align 4
  store ptr %0, ptr %3, align 8
  store ptr %1, ptr %4, align 8
  call void @llvm.lifetime.start.p0(i64 8, ptr %5) #8
  call void @llvm.lifetime.start.p0(i64 4, ptr %6) #8
  %7 = call ptr @newNode(i64 noundef 24, i32 noundef 31)
  store ptr %7, ptr %5, align 8
  %8 = load ptr, ptr %3, align 8
  %9 = load ptr, ptr %4, align 8
  %10 = getelementptr inbounds nuw %struct.CollateClause, ptr %9, i32 0, i32 1
  %11 = load ptr, ptr %10, align 8
  %12 = call ptr @transformExprRecurse(ptr noundef %8, ptr noundef %11)
  %13 = load ptr, ptr %5, align 8
  %14 = getelementptr inbounds nuw %struct.CollateExpr, ptr %13, i32 0, i32 1
  store ptr %12, ptr %14, align 8
  %15 = load ptr, ptr %5, align 8
  %16 = getelementptr inbounds nuw %struct.CollateExpr, ptr %15, i32 0, i32 1
  %17 = load ptr, ptr %16, align 8
  %18 = call i32 @exprType(ptr noundef %17)
  store i32 %18, ptr %6, align 4
  %19 = load i32, ptr %6, align 4
  %20 = call zeroext i1 @type_is_collatable(i32 noundef %19)
  br i1 %20, label %43, label %21

21:                                               ; preds = %2
  %22 = load i32, ptr %6, align 4
  %23 = icmp ne i32 %22, 705
  br i1 %23, label %24, label %43

24:                                               ; preds = %21
  br label %25

25:                                               ; preds = %24
  br i1 true, label %26, label %28

26:                                               ; preds = %25
  %27 = call zeroext i1 @errstart_cold(i32 noundef 21, ptr noundef null) #9
  br i1 %27, label %30, label %40

28:                                               ; preds = %25
  %29 = call zeroext i1 @errstart(i32 noundef 21, ptr noundef null)
  br i1 %29, label %30, label %40

30:                                               ; preds = %28, %26
  %31 = call i32 @errcode(i32 noundef 67141764)
  %32 = load i32, ptr %6, align 4
  %33 = call ptr @format_type_be(i32 noundef %32)
  %34 = call i32 (ptr, ...) @errmsg(ptr noundef @.str.62, ptr noundef %33)
  %35 = load ptr, ptr %3, align 8
  %36 = load ptr, ptr %4, align 8
  %37 = getelementptr inbounds nuw %struct.CollateClause, ptr %36, i32 0, i32 3
  %38 = load i32, ptr %37, align 8
  %39 = call i32 @parser_errposition(ptr noundef %35, i32 noundef %38)
  call void @errfinish(ptr noundef @.str.41, i32 noundef 2795, ptr noundef @__func__.transformCollateClause)
  br label %40

40:                                               ; preds = %30, %28, %26
  unreachable

41:                                               ; No predecessors!
  br label %42

42:                                               ; preds = %41
  br label %43

43:                                               ; preds = %42, %21, %2
  %44 = load ptr, ptr %3, align 8
  %45 = load ptr, ptr %4, align 8
  %46 = getelementptr inbounds nuw %struct.CollateClause, ptr %45, i32 0, i32 2
  %47 = load ptr, ptr %46, align 8
  %48 = load ptr, ptr %4, align 8
  %49 = getelementptr inbounds nuw %struct.CollateClause, ptr %48, i32 0, i32 3
  %50 = load i32, ptr %49, align 8
  %51 = call i32 @LookupCollation(ptr noundef %44, ptr noundef %47, i32 noundef %50)
  %52 = load ptr, ptr %5, align 8
  %53 = getelementptr inbounds nuw %struct.CollateExpr, ptr %52, i32 0, i32 2
  store i32 %51, ptr %53, align 8
  %54 = load ptr, ptr %4, align 8
  %55 = getelementptr inbounds nuw %struct.CollateClause, ptr %54, i32 0, i32 3
  %56 = load i32, ptr %55, align 8
  %57 = load ptr, ptr %5, align 8
  %58 = getelementptr inbounds nuw %struct.CollateExpr, ptr %57, i32 0, i32 3
  store i32 %56, ptr %58, align 4
  %59 = load ptr, ptr %5, align 8
  call void @llvm.lifetime.end.p0(i64 4, ptr %6) #8
  call void @llvm.lifetime.end.p0(i64 8, ptr %5) #8
  ret ptr %59
}