; Function Attrs: nounwind uwtable
define internal fastcc noundef ptr @transformCollateClause(ptr noundef %0, ptr noundef nonnull readonly captures(none) %1) unnamed_addr #0 {
  %3 = tail call noundef ptr @palloc0(i64 noundef 24) #9
  store i32 31, ptr %3, align 4
  %4 = getelementptr inbounds nuw i8, ptr %1, i64 8
  %5 = load ptr, ptr %4, align 8
  %6 = tail call fastcc ptr @transformExprRecurse(ptr noundef %0, ptr noundef %5)
  %7 = getelementptr inbounds nuw i8, ptr %3, i64 8
  store ptr %6, ptr %7, align 8
  %8 = tail call i32 @exprType(ptr noundef %6) #9
  %9 = tail call zeroext i1 @type_is_collatable(i32 noundef %8) #9
  %10 = icmp eq i32 %8, 705
  %or.cond.not = or i1 %10, %9
  br i1 %or.cond.not, label %19, label %11

11:                                               ; preds = %2
  %12 = tail call zeroext i1 @errstart_cold(i32 noundef 21, ptr noundef null) #10
  tail call void @llvm.assume(i1 %12)
  %13 = tail call i32 @errcode(i32 noundef 67141764) #9
  %14 = tail call ptr @format_type_be(i32 noundef %8) #9
  %15 = tail call i32 (ptr, ...) @errmsg(ptr noundef nonnull @.str.62, ptr noundef %14) #9
  %16 = getelementptr inbounds nuw i8, ptr %1, i64 24
  %17 = load i32, ptr %16, align 8
  %18 = tail call i32 @parser_errposition(ptr noundef %0, i32 noundef %17) #9
  tail call void @errfinish(ptr noundef nonnull @.str.41, i32 noundef 2795, ptr noundef nonnull @__func__.transformCollateClause) #9
  unreachable

19:                                               ; preds = %2
  %20 = getelementptr inbounds nuw i8, ptr %1, i64 16
  %21 = load ptr, ptr %20, align 8
  %22 = getelementptr inbounds nuw i8, ptr %1, i64 24
  %23 = load i32, ptr %22, align 8
  %24 = tail call i32 @LookupCollation(ptr noundef %0, ptr noundef %21, i32 noundef %23) #9
  %25 = getelementptr inbounds nuw i8, ptr %3, i64 16
  store i32 %24, ptr %25, align 8
  %26 = load i32, ptr %22, align 8
  %27 = getelementptr inbounds nuw i8, ptr %3, i64 20
  store i32 %26, ptr %27, align 4
  ret ptr %3
}